target datalayout = "e-m:e-p270:32:32-p271:32:32-p272:64:64-i64:64-i128:128-f80:128-n8:16:32:64-S128"
target triple = "x86_64-pc-linux-gnu"

%struct._object = type { %union.anon, ptr }
%union.anon = type { i64 }
%struct.Blake2Object = type { %struct._object, %union.anon.0, i32, i8, %struct.PyMutex }
%union.anon.0 = type { ptr }
%struct.PyMutex = type { i8 }
%struct.Hacl_Hash_Blake2b_index_s = type { i8, i8, i8 }

; Function Attrs: nounwind uwtable
define internal ptr @py_blake2b_get_digest_size(ptr noundef %0, ptr noundef %1) #0 {
  %3 = alloca ptr, align 8
  %4 = alloca ptr, align 8
  %5 = alloca ptr, align 8
  %6 = alloca ptr, align 8
  %7 = alloca %struct.Hacl_Hash_Blake2b_index_s, align 1
  %8 = alloca i32, align 4
  %9 = alloca %struct.Hacl_Hash_Blake2b_index_s, align 1
  %10 = alloca %struct.Hacl_Hash_Blake2b_index_s, align 1
  %11 = alloca %struct.Hacl_Hash_Blake2b_index_s, align 1
  store ptr %0, ptr %4, align 8, !tbaa !24
  store ptr %1, ptr %5, align 8, !tbaa !3
  call void @llvm.lifetime.start.p0(i64 8, ptr %6) #8
  %12 = load ptr, ptr %4, align 8, !tbaa !24
  store ptr %12, ptr %6, align 8, !tbaa !3
  %13 = load ptr, ptr %6, align 8, !tbaa !3
  %14 = getelementptr inbounds nuw %struct.Blake2Object, ptr %13, i32 0, i32 2
  %15 = load i32, ptr %14, align 8, !tbaa !47
  switch i32 %15, label %52 [
    i32 3, label %16
    i32 2, label %25
    i32 1, label %34
    i32 0, label %43
  ]

16:                                               ; preds = %2
  %17 = load ptr, ptr %6, align 8, !tbaa !3
  %18 = getelementptr inbounds nuw %struct.Blake2Object, ptr %17, i32 0, i32 1
  %19 = load ptr, ptr %18, align 8, !tbaa !43
  %20 = call i24 @python_hashlib_Hacl_Hash_Blake2b_Simd256_info(ptr noundef %19)
  store i24 %20, ptr %7, align 1
  %21 = getelementptr inbounds nuw %struct.Hacl_Hash_Blake2b_index_s, ptr %7, i32 0, i32 1
  %22 = load i8, ptr %21, align 1, !tbaa !78
  %23 = zext i8 %22 to i64
  %24 = call ptr @PyLong_FromLong(i64 noundef %23)
  store ptr %24, ptr %3, align 8
  store i32 1, ptr %8, align 4
  br label %53

25:                                               ; preds = %2
  %26 = load ptr, ptr %6, align 8, !tbaa !3
  %27 = getelementptr inbounds nuw %struct.Blake2Object, ptr %26, i32 0, i32 1
  %28 = load ptr, ptr %27, align 8, !tbaa !43
  %29 = call i24 @python_hashlib_Hacl_Hash_Blake2s_Simd128_info(ptr noundef %28)
  store i24 %29, ptr %9, align 1
  %30 = getelementptr inbounds nuw %struct.Hacl_Hash_Blake2b_index_s, ptr %9, i32 0, i32 1
  %31 = load i8, ptr %30, align 1, !tbaa !78
  %32 = zext i8 %31 to i64
  %33 = call ptr @PyLong_FromLong(i64 noundef %32)
  store ptr %33, ptr %3, align 8
  store i32 1, ptr %8, align 4
  br label %53

34:                                               ; preds = %2
  %35 = load ptr, ptr %6, align 8, !tbaa !3
  %36 = getelementptr inbounds nuw %struct.Blake2Object, ptr %35, i32 0, i32 1
  %37 = load ptr, ptr %36, align 8, !tbaa !43
  %38 = call i24 @python_hashlib_Hacl_Hash_Blake2b_info(ptr noundef %37)
  store i24 %38, ptr %10, align 1
  %39 = getelementptr inbounds nuw %struct.Hacl_Hash_Blake2b_index_s, ptr %10, i32 0, i32 1
  %40 = load i8, ptr %39, align 1, !tbaa !78
  %41 = zext i8 %40 to i64
  %42 = call ptr @PyLong_FromLong(i64 noundef %41)
  store ptr %42, ptr %3, align 8
  store i32 1, ptr %8, align 4
  br label %53

43:                                               ; preds = %2
  %44 = load ptr, ptr %6, align 8, !tbaa !3
  %45 = getelementptr inbounds nuw %struct.Blake2Object, ptr %44, i32 0, i32 1
  %46 = load ptr, ptr %45, align 8, !tbaa !43
  %47 = call i24 @python_hashlib_Hacl_Hash_Blake2s_info(ptr noundef %46)
  store i24 %47, ptr %11, align 1
  %48 = getelementptr inbounds nuw %struct.Hacl_Hash_Blake2b_index_s, ptr %11, i32 0, i32 1
  %49 = load i8, ptr %48, align 1, !tbaa !78
  %50 = zext i8 %49 to i64
  %51 = call ptr @PyLong_FromLong(i64 noundef %50)
  store ptr %51, ptr %3, align 8
  store i32 1, ptr %8, align 4
  br label %53

52:                                               ; preds = %2
  unreachable

53:                                               ; preds = %43, %34, %25, %16
  call void @llvm.lifetime.end.p0(i64 8, ptr %6) #8
  %54 = load ptr, ptr %3, align 8
  ret ptr %54
}