; Function Attrs: nounwind uwtable
define internal ptr @py_blake2b_get_digest_size(ptr noundef readonly captures(none) %0, ptr readnone captures(none) %1) #2 {
  %3 = getelementptr inbounds nuw i8, ptr %0, i64 24
  %4 = load i32, ptr %3, align 8, !tbaa !42
  %5 = getelementptr inbounds nuw i8, ptr %0, i64 16
  %6 = load ptr, ptr %5, align 8, !tbaa !31
  switch i32 %4, label %15 [
    i32 3, label %7
    i32 2, label %9
    i32 1, label %11
    i32 0, label %13
  ]

7:                                                ; preds = %2
  %8 = tail call i24 @python_hashlib_Hacl_Hash_Blake2b_Simd256_info(ptr noundef %6) #9
  br label %16

9:                                                ; preds = %2
  %10 = tail call i24 @python_hashlib_Hacl_Hash_Blake2s_Simd128_info(ptr noundef %6) #9
  br label %16

11:                                               ; preds = %2
  %12 = tail call i24 @python_hashlib_Hacl_Hash_Blake2b_info(ptr noundef %6) #9
  br label %16

13:                                               ; preds = %2
  %14 = tail call i24 @python_hashlib_Hacl_Hash_Blake2s_info(ptr noundef %6) #9
  br label %16

15:                                               ; preds = %2
  unreachable

16:                                               ; preds = %13, %11, %9, %7
  %.sink = phi i24 [ %14, %13 ], [ %12, %11 ], [ %10, %9 ], [ %8, %7 ]
  %.sroa.1.0.extract.shift = lshr i24 %.sink, 8
  %17 = and i24 %.sroa.1.0.extract.shift, 255
  %18 = zext nneg i24 %17 to i64
  %19 = tail call ptr @PyLong_FromLong(i64 noundef %18) #9
  ret ptr %19
}